target datalayout = "e-m:e-p270:32:32-p271:32:32-p272:64:64-i64:64-i128:128-f80:128-n8:16:32:64-S128"
target triple = "x86_64-pc-linux-gnu"

; Function Attrs: nounwind null_pointer_is_valid sspstrong uwtable
define internal ptr @skip_enclosed_container(ptr noundef %0, i8 noundef signext %1, i8 noundef signext %2) #6 {
  %4 = alloca ptr, align 8
  %5 = alloca ptr, align 8
  %6 = alloca i8, align 1
  %7 = alloca i8, align 1
  %8 = alloca i32, align 4
  %9 = alloca i8, align 1
  %10 = alloca i32, align 4
  store ptr %0, ptr %5, align 8
  store i8 %1, ptr %6, align 1
  store i8 %2, ptr %7, align 1
  call void @llvm.lifetime.start.p0(i64 4, ptr %8) #11
  store i32 0, ptr %8, align 4
  call void @llvm.lifetime.start.p0(i64 1, ptr %9) #11
  %11 = load ptr, ptr %5, align 8
  %12 = getelementptr i8, ptr %11, i32 1
  store ptr %12, ptr %5, align 8
  %13 = load i8, ptr %11, align 1
  store i8 %13, ptr %9, align 1
  br label %14

14:                                               ; preds = %44, %3
  %15 = load i8, ptr %9, align 1
  %16 = sext i8 %15 to i32
  %17 = icmp ne i32 %16, 0
  br i1 %17, label %19, label %18

18:                                               ; preds = %14
  store i32 2, ptr %10, align 4
  br label %48

19:                                               ; preds = %14
  %20 = load i8, ptr %9, align 1
  %21 = sext i8 %20 to i32
  %22 = load i8, ptr %7, align 1
  %23 = sext i8 %22 to i32
  %24 = icmp eq i32 %21, %23
  br i1 %24, label %25, label %33

25:                                               ; preds = %19
  %26 = load i32, ptr %8, align 4
  %27 = icmp eq i32 %26, 0
  br i1 %27, label %28, label %30

28:                                               ; preds = %25
  %29 = load ptr, ptr %5, align 8
  store ptr %29, ptr %4, align 8
  store i32 1, ptr %10, align 4
  br label %48

30:                                               ; preds = %25
  %31 = load i32, ptr %8, align 4
  %32 = add i32 %31, -1
  store i32 %32, ptr %8, align 4
  br label %43

33:                                               ; preds = %19
  %34 = load i8, ptr %9, align 1
  %35 = sext i8 %34 to i32
  %36 = load i8, ptr %6, align 1
  %37 = sext i8 %36 to i32
  %38 = icmp eq i32 %35, %37
  br i1 %38, label %39, label %42

39:                                               ; preds = %33
  %40 = load i32, ptr %8, align 4
  %41 = add i32 %40, 1
  store i32 %41, ptr %8, align 4
  br label %42

42:                                               ; preds = %39, %33
  br label %43

43:                                               ; preds = %42, %30
  br label %44

44:                                               ; preds = %43
  %45 = load ptr, ptr %5, align 8
  %46 = getelementptr i8, ptr %45, i32 1
  store ptr %46, ptr %5, align 8
  %47 = load i8, ptr %45, align 1
  store i8 %47, ptr %9, align 1
  br label %14, !llvm.loop !21

48:                                               ; preds = %28, %18
  call void @llvm.lifetime.end.p0(i64 1, ptr %9) #11
  %49 = load i32, ptr %10, align 4
  switch i32 %49, label %51 [
    i32 2, label %50
  ]

50:                                               ; preds = %48
  store ptr null, ptr %4, align 8
  store i32 1, ptr %10, align 4
  br label %51

51:                                               ; preds = %50, %48
  call void @llvm.lifetime.end.p0(i64 4, ptr %8) #11
  %52 = load ptr, ptr %4, align 8
  ret ptr %52
}

; Function Attrs: null_pointer_is_valid sspstrong uwtable
define internal ptr @skip_single_complete_type(ptr noundef %0) #0 {
  %2 = alloca ptr, align 8
  %3 = alloca ptr, align 8
  %4 = alloca i8, align 1
  %5 = alloca i32, align 4
  store ptr %0, ptr %3, align 8
  call void @llvm.lifetime.start.p0(i64 1, ptr %4) #11
  br label %6

6:                                                ; preds = %15, %1
  br label %7

7:                                                ; preds = %6
  %8 = load ptr, ptr %3, align 8
  %9 = getelementptr i8, ptr %8, i32 1
  store ptr %9, ptr %3, align 8
  %10 = load i8, ptr %8, align 1
  store i8 %10, ptr %4, align 1
  %11 = load i8, ptr %4, align 1
  %12 = sext i8 %11 to i32
  switch i32 %12, label %22 [
    i32 121, label %13
    i32 98, label %13
    i32 110, label %13
    i32 113, label %13
    i32 105, label %13
    i32 117, label %13
    i32 120, label %13
    i32 116, label %13
    i32 100, label %13
    i32 115, label %13
    i32 111, label %13
    i32 103, label %13
    i32 118, label %13
    i32 104, label %13
    i32 97, label %15
    i32 40, label %16
    i32 123, label %19
  ]

13:                                               ; preds = %7, %7, %7, %7, %7, %7, %7, %7, %7, %7, %7, %7, %7, %7
  %14 = load ptr, ptr %3, align 8
  store ptr %14, ptr %2, align 8
  store i32 1, ptr %5, align 4
  br label %23

15:                                               ; preds = %7
  br label %6

16:                                               ; preds = %7
  %17 = load ptr, ptr %3, align 8
  %18 = call ptr @skip_enclosed_container(ptr noundef %17, i8 noundef signext 40, i8 noundef signext 41)
  store ptr %18, ptr %2, align 8
  store i32 1, ptr %5, align 4
  br label %23

19:                                               ; preds = %7
  %20 = load ptr, ptr %3, align 8
  %21 = call ptr @skip_enclosed_container(ptr noundef %20, i8 noundef signext 123, i8 noundef signext 125)
  store ptr %21, ptr %2, align 8
  store i32 1, ptr %5, align 4
  br label %23

22:                                               ; preds = %7
  store ptr null, ptr %2, align 8
  store i32 1, ptr %5, align 4
  br label %23

23:                                               ; preds = %22, %19, %16, %13
  call void @llvm.lifetime.end.p0(i64 1, ptr %4) #11
  %24 = load ptr, ptr %2, align 8
  ret ptr %24
}