; Function Attrs: nofree norecurse nosync nounwind null_pointer_is_valid sspstrong memory(argmem: read) uwtable
define internal fastcc ptr @skip_single_complete_type(ptr noundef readonly captures(ret: address, provenance) %0) unnamed_addr #6 {
  br label %2

2:                                                ; preds = %2, %1
  %.05 = phi ptr [ %0, %1 ], [ %3, %2 ]
  %3 = getelementptr i8, ptr %.05, i64 1
  %4 = load i8, ptr %.05, align 1
  switch i8 %4, label %skip_enclosed_container.exit [
    i8 121, label %skip_enclosed_container.exit.loopexit45
    i8 98, label %skip_enclosed_container.exit.loopexit45
    i8 110, label %skip_enclosed_container.exit.loopexit45
    i8 113, label %skip_enclosed_container.exit.loopexit45
    i8 105, label %skip_enclosed_container.exit.loopexit45
    i8 117, label %skip_enclosed_container.exit.loopexit45
    i8 120, label %skip_enclosed_container.exit.loopexit45
    i8 116, label %skip_enclosed_container.exit.loopexit45
    i8 100, label %skip_enclosed_container.exit.loopexit45
    i8 115, label %skip_enclosed_container.exit.loopexit45
    i8 111, label %skip_enclosed_container.exit.loopexit45
    i8 103, label %skip_enclosed_container.exit.loopexit45
    i8 118, label %skip_enclosed_container.exit.loopexit45
    i8 104, label %skip_enclosed_container.exit.loopexit45
    i8 97, label %2
    i8 40, label %5
    i8 123, label %13
  ]

5:                                                ; preds = %2
  %.01220.i = load i8, ptr %3, align 1
  %.not21.i = icmp eq i8 %.01220.i, 0
  br i1 %.not21.i, label %skip_enclosed_container.exit, label %.lr.ph.i

.lr.ph.i:                                         ; preds = %5, %12
  %.01224.i = phi i8 [ %.012.i, %12 ], [ %.01220.i, %5 ]
  %.01623.pn.i = phi ptr [ %.01623.i, %12 ], [ %3, %5 ]
  %.01322.i = phi i32 [ %spec.select.i, %12 ], [ 0, %5 ]
  %.01623.i = getelementptr i8, ptr %.01623.pn.i, i64 1
  %6 = icmp eq i8 %.01224.i, 41
  br i1 %6, label %7, label %9

7:                                                ; preds = %.lr.ph.i
  %8 = icmp eq i32 %.01322.i, 0
  br i1 %8, label %skip_enclosed_container.exit, label %12

9:                                                ; preds = %.lr.ph.i
  %10 = icmp eq i8 %.01224.i, 40
  %11 = zext i1 %10 to i32
  br label %12

12:                                               ; preds = %9, %7
  %.sink.i = phi i32 [ %11, %9 ], [ -1, %7 ]
  %spec.select.i = add i32 %.sink.i, %.01322.i
  %.012.i = load i8, ptr %.01623.i, align 1
  %.not.i = icmp eq i8 %.012.i, 0
  br i1 %.not.i, label %skip_enclosed_container.exit, label %.lr.ph.i, !llvm.loop !20

13:                                               ; preds = %2
  %.01220.i6 = load i8, ptr %3, align 1
  %.not21.i7 = icmp eq i8 %.01220.i6, 0
  br i1 %.not21.i7, label %skip_enclosed_container.exit, label %.lr.ph.i8

.lr.ph.i8:                                        ; preds = %13, %20
  %.01224.i9 = phi i8 [ %.012.i15, %20 ], [ %.01220.i6, %13 ]
  %.01623.pn.i10 = phi ptr [ %.01623.i12, %20 ], [ %3, %13 ]
  %.01322.i11 = phi i32 [ %spec.select.i14, %20 ], [ 0, %13 ]
  %.01623.i12 = getelementptr i8, ptr %.01623.pn.i10, i64 1
  %14 = icmp eq i8 %.01224.i9, 125
  br i1 %14, label %15, label %17

15:                                               ; preds = %.lr.ph.i8
  %16 = icmp eq i32 %.01322.i11, 0
  br i1 %16, label %skip_enclosed_container.exit, label %20

17:                                               ; preds = %.lr.ph.i8
  %18 = icmp eq i8 %.01224.i9, 123
  %19 = zext i1 %18 to i32
  br label %20

20:                                               ; preds = %17, %15
  %.sink.i13 = phi i32 [ %19, %17 ], [ -1, %15 ]
  %spec.select.i14 = add i32 %.sink.i13, %.01322.i11
  %.012.i15 = load i8, ptr %.01623.i12, align 1
  %.not.i16 = icmp eq i8 %.012.i15, 0
  br i1 %.not.i16, label %skip_enclosed_container.exit, label %.lr.ph.i8, !llvm.loop !20

skip_enclosed_container.exit.loopexit45:          ; preds = %2, %2, %2, %2, %2, %2, %2, %2, %2, %2, %2, %2, %2, %2
  br label %skip_enclosed_container.exit

skip_enclosed_container.exit:                     ; preds = %20, %15, %12, %7, %2, %skip_enclosed_container.exit.loopexit45, %13, %5
  %.0 = phi ptr [ null, %5 ], [ null, %13 ], [ %3, %skip_enclosed_container.exit.loopexit45 ], [ null, %2 ], [ null, %12 ], [ %.01623.i, %7 ], [ null, %20 ], [ %.01623.i12, %15 ]
  ret ptr %.0
}